; Function Attrs: mustprogress uwtable
define noundef nonnull align 4 dereferenceable(8) ptr @_ZNK32pxrInternal_v0_24__pxrReserved__12PcpPrimIndex7GetPathEv(ptr nocapture noundef nonnull readonly align 8 dereferenceable(40) %0) local_unnamed_addr #3 align 2 {
  %2 = alloca %"class.pxrInternal_v0_24__pxrReserved__::PcpNodeRef", align 8
  %3 = load ptr, ptr %0, align 8
  %.not.i = icmp eq ptr %3, null
  br i1 %.not.i, label %9, label %_ZNK32pxrInternal_v0_24__pxrReserved__8TfRefPtrINS_18PcpPrimIndex_GraphEEptEv.exit

_ZNK32pxrInternal_v0_24__pxrReserved__8TfRefPtrINS_18PcpPrimIndex_GraphEEptEv.exit: ; preds = %1
  %4 = tail call { ptr, i64 } @_ZNK32pxrInternal_v0_24__pxrReserved__18PcpPrimIndex_Graph11GetRootNodeEv(ptr noundef nonnull align 8 dereferenceable(57) %3)
  %5 = extractvalue { ptr, i64 } %4, 0
  store ptr %5, ptr %2, align 8
  %6 = getelementptr inbounds nuw i8, ptr %2, i64 8
  %7 = extractvalue { ptr, i64 } %4, 1
  store i64 %7, ptr %6, align 8
  %8 = call noundef nonnull align 4 dereferenceable(8) ptr @_ZNK32pxrInternal_v0_24__pxrReserved__10PcpNodeRef7GetPathEv(ptr noundef nonnull align 8 dereferenceable(16) %2)
  br label %11

9:                                                ; preds = %1
  %10 = tail call noundef nonnull align 4 dereferenceable(8) ptr @_ZN32pxrInternal_v0_24__pxrReserved__7SdfPath9EmptyPathEv()
  br label %11

11:                                               ; preds = %9, %_ZNK32pxrInternal_v0_24__pxrReserved__8TfRefPtrINS_18PcpPrimIndex_GraphEEptEv.exit
  %12 = phi ptr [ %8, %_ZNK32pxrInternal_v0_24__pxrReserved__8TfRefPtrINS_18PcpPrimIndex_GraphEEptEv.exit ], [ %10, %9 ]
  ret ptr %12
}